target datalayout = "e-m:e-p270:32:32-p271:32:32-p272:64:64-i64:64-i128:128-f80:128-n8:16:32:64-S128"
target triple = "x86_64-unknown-linux-gnu"

%"class.re2::Prefilter::Info::Walker" = type <{ %"class.re2::Regexp::Walker", i8, [7 x i8] }>
%"class.re2::Regexp::Walker" = type { ptr, %"class.std::stack", i8, i32 }
%"class.std::stack" = type { %"class.std::deque" }
%"class.std::deque" = type { %"class.std::_Deque_base" }
%"class.std::_Deque_base" = type { %"struct.std::_Deque_base<re2::WalkState<re2::Prefilter::Info *>, std::allocator<re2::WalkState<re2::Prefilter::Info *>>>::_Deque_impl" }
%"struct.std::_Deque_base<re2::WalkState<re2::Prefilter::Info *>, std::allocator<re2::WalkState<re2::Prefilter::Info *>>>::_Deque_impl" = type { %"struct.std::_Deque_base<re2::WalkState<re2::Prefilter::Info *>, std::allocator<re2::WalkState<re2::Prefilter::Info *>>>::_Deque_impl_data" }
%"struct.std::_Deque_base<re2::WalkState<re2::Prefilter::Info *>, std::allocator<re2::WalkState<re2::Prefilter::Info *>>>::_Deque_impl_data" = type { ptr, i64, %"struct.std::_Deque_iterator", %"struct.std::_Deque_iterator" }
%"struct.std::_Deque_iterator" = type { ptr, ptr, ptr, ptr }
%"class.re2::Regexp" = type { i8, i8, i16, i16, i16, %union.anon.6, ptr, %union.anon.7 }
%union.anon.6 = type { ptr }
%union.anon.7 = type { %struct.anon.8 }
%struct.anon.8 = type { i32, ptr }

@_ZN3re29Prefilter4InfoD1Ev = unnamed_addr alias void (ptr), ptr @_ZN3re29Prefilter4InfoD2Ev

; Function Attrs: mustprogress nounwind uwtable
define linkonce_odr void @_ZNSt15__new_allocatorIN3re29WalkStateIPNS0_9Prefilter4InfoEEEED2Ev(ptr noundef nonnull align 1 dereferenceable(1) %this) unnamed_addr #3 comdat align 2 {
entry:
  %this.addr = alloca ptr, align 8
  store ptr %this, ptr %this.addr, align 8
  ret void
}

; Function Attrs: mustprogress nounwind uwtable
define linkonce_odr void @_ZNSt15_Deque_iteratorIN3re29WalkStateIPNS0_9Prefilter4InfoEEERS5_PS5_EC2Ev(ptr noundef nonnull align 8 dereferenceable(32) %this) unnamed_addr #3 comdat align 2 {
entry:
  %this.addr = alloca ptr, align 8
  store ptr %this, ptr %this.addr, align 8
  %this1 = load ptr, ptr %this.addr, align 8
  %_M_cur = getelementptr inbounds %"struct.std::_Deque_iterator", ptr %this1, i32 0, i32 0
  store ptr null, ptr %_M_cur, align 8
  %_M_first = getelementptr inbounds %"struct.std::_Deque_iterator", ptr %this1, i32 0, i32 1
  store ptr null, ptr %_M_first, align 8
  %_M_last = getelementptr inbounds %"struct.std::_Deque_iterator", ptr %this1, i32 0, i32 2
  store ptr null, ptr %_M_last, align 8
  %_M_node = getelementptr inbounds %"struct.std::_Deque_iterator", ptr %this1, i32 0, i32 3
  store ptr null, ptr %_M_node, align 8
  ret void
}

; Function Attrs: mustprogress nounwind uwtable
define linkonce_odr void @_ZNSt15__new_allocatorIN3re29WalkStateIPNS0_9Prefilter4InfoEEEEC2Ev(ptr noundef nonnull align 1 dereferenceable(1) %this) unnamed_addr #3 comdat align 2 {
entry:
  %this.addr = alloca ptr, align 8
  store ptr %this, ptr %this.addr, align 8
  ret void
}

; Function Attrs: mustprogress nounwind uwtable
define linkonce_odr void @_ZNSaIN3re29WalkStateIPNS_9Prefilter4InfoEEEED2Ev(ptr noundef nonnull align 1 dereferenceable(1) %this) unnamed_addr #3 comdat align 2 {
entry:
  %this.addr = alloca ptr, align 8
  store ptr %this, ptr %this.addr, align 8
  %this1 = load ptr, ptr %this.addr, align 8
  call void @_ZNSt15__new_allocatorIN3re29WalkStateIPNS0_9Prefilter4InfoEEEED2Ev(ptr noundef nonnull align 1 dereferenceable(1) %this1) #13
  ret void
}

; Function Attrs: mustprogress nounwind uwtable
define linkonce_odr void @_ZNSt11_Deque_baseIN3re29WalkStateIPNS0_9Prefilter4InfoEEESaIS5_EE16_Deque_impl_dataC2Ev(ptr noundef nonnull align 8 dereferenceable(80) %this) unnamed_addr #3 comdat align 2 {
entry:
  %this.addr = alloca ptr, align 8
  store ptr %this, ptr %this.addr, align 8
  %this1 = load ptr, ptr %this.addr, align 8
  %_M_map = getelementptr inbounds %"struct.std::_Deque_base<re2::WalkState<re2::Prefilter::Info *>, std::allocator<re2::WalkState<re2::Prefilter::Info *>>>::_Deque_impl_data", ptr %this1, i32 0, i32 0
  store ptr null, ptr %_M_map, align 8
  %_M_map_size = getelementptr inbounds %"struct.std::_Deque_base<re2::WalkState<re2::Prefilter::Info *>, std::allocator<re2::WalkState<re2::Prefilter::Info *>>>::_Deque_impl_data", ptr %this1, i32 0, i32 1
  store i64 0, ptr %_M_map_size, align 8
  %_M_start = getelementptr inbounds %"struct.std::_Deque_base<re2::WalkState<re2::Prefilter::Info *>, std::allocator<re2::WalkState<re2::Prefilter::Info *>>>::_Deque_impl_data", ptr %this1, i32 0, i32 2
  call void @_ZNSt15_Deque_iteratorIN3re29WalkStateIPNS0_9Prefilter4InfoEEERS5_PS5_EC2Ev(ptr noundef nonnull align 8 dereferenceable(32) %_M_start) #13
  %_M_finish = getelementptr inbounds %"struct.std::_Deque_base<re2::WalkState<re2::Prefilter::Info *>, std::allocator<re2::WalkState<re2::Prefilter::Info *>>>::_Deque_impl_data", ptr %this1, i32 0, i32 3
  call void @_ZNSt15_Deque_iteratorIN3re29WalkStateIPNS0_9Prefilter4InfoEEERS5_PS5_EC2Ev(ptr noundef nonnull align 8 dereferenceable(32) %_M_finish) #13
  ret void
}

; Function Attrs: mustprogress nounwind uwtable
define linkonce_odr void @_ZNSaIN3re29WalkStateIPNS_9Prefilter4InfoEEEEC2Ev(ptr noundef nonnull align 1 dereferenceable(1) %this) unnamed_addr #3 comdat align 2 {
entry:
  %this.addr = alloca ptr, align 8
  store ptr %this, ptr %this.addr, align 8
  %this1 = load ptr, ptr %this.addr, align 8
  call void @_ZNSt15__new_allocatorIN3re29WalkStateIPNS0_9Prefilter4InfoEEEEC2Ev(ptr noundef nonnull align 1 dereferenceable(1) %this1) #13
  ret void
}

; Function Attrs: mustprogress nounwind uwtable
define linkonce_odr void @_ZNSt11_Deque_baseIN3re29WalkStateIPNS0_9Prefilter4InfoEEESaIS5_EE11_Deque_implD2Ev(ptr noundef nonnull align 8 dereferenceable(80) %this) unnamed_addr #3 comdat align 2 {
entry:
  %this.addr = alloca ptr, align 8
  store ptr %this, ptr %this.addr, align 8
  %this1 = load ptr, ptr %this.addr, align 8
  call void @_ZNSaIN3re29WalkStateIPNS_9Prefilter4InfoEEEED2Ev(ptr noundef nonnull align 1 dereferenceable(1) %this1) #13
  ret void
}

; Function Attrs: mustprogress nounwind uwtable
define linkonce_odr void @_ZNSt11_Deque_baseIN3re29WalkStateIPNS0_9Prefilter4InfoEEESaIS5_EE11_Deque_implC2Ev(ptr noundef nonnull align 8 dereferenceable(80) %this) unnamed_addr #3 comdat align 2 {
entry:
  %this.addr = alloca ptr, align 8
  store ptr %this, ptr %this.addr, align 8
  %this1 = load ptr, ptr %this.addr, align 8
  call void @_ZNSaIN3re29WalkStateIPNS_9Prefilter4InfoEEEEC2Ev(ptr noundef nonnull align 1 dereferenceable(1) %this1) #13
  call void @_ZNSt11_Deque_baseIN3re29WalkStateIPNS0_9Prefilter4InfoEEESaIS5_EE16_Deque_impl_dataC2Ev(ptr noundef nonnull align 8 dereferenceable(80) %this1) #13
  ret void
}

; Function Attrs: mustprogress uwtable
define linkonce_odr void @_ZNSt11_Deque_baseIN3re29WalkStateIPNS0_9Prefilter4InfoEEESaIS5_EEC2Ev(ptr noundef nonnull align 8 dereferenceable(80) %this) unnamed_addr #0 comdat align 2 personality ptr @__gxx_personality_v0 {
entry:
  %this.addr = alloca ptr, align 8
  %exn.slot = alloca ptr, align 8
  %ehselector.slot = alloca i32, align 4
  store ptr %this, ptr %this.addr, align 8
  %this1 = load ptr, ptr %this.addr, align 8
  %_M_impl = getelementptr inbounds %"class.std::_Deque_base", ptr %this1, i32 0, i32 0
  call void @_ZNSt11_Deque_baseIN3re29WalkStateIPNS0_9Prefilter4InfoEEESaIS5_EE11_Deque_implC2Ev(ptr noundef nonnull align 8 dereferenceable(80) %_M_impl) #13
  invoke void @_ZNSt11_Deque_baseIN3re29WalkStateIPNS0_9Prefilter4InfoEEESaIS5_EE17_M_initialize_mapEm(ptr noundef nonnull align 8 dereferenceable(80) %this1, i64 noundef 0)
          to label %invoke.cont unwind label %lpad

invoke.cont:                                      ; preds = %entry
  ret void

lpad:                                             ; preds = %entry
  %0 = landingpad { ptr, i32 }
          cleanup
  %1 = extractvalue { ptr, i32 } %0, 0
  store ptr %1, ptr %exn.slot, align 8
  %2 = extractvalue { ptr, i32 } %0, 1
  store i32 %2, ptr %ehselector.slot, align 4
  call void @_ZNSt11_Deque_baseIN3re29WalkStateIPNS0_9Prefilter4InfoEEESaIS5_EE11_Deque_implD2Ev(ptr noundef nonnull align 8 dereferenceable(80) %_M_impl) #13
  br label %eh.resume

eh.resume:                                        ; preds = %lpad
  %exn = load ptr, ptr %exn.slot, align 8
  %sel = load i32, ptr %ehselector.slot, align 4
  %lpad.val = insertvalue { ptr, i32 } poison, ptr %exn, 0
  %lpad.val2 = insertvalue { ptr, i32 } %lpad.val, i32 %sel, 1
  resume { ptr, i32 } %lpad.val2
}

; Function Attrs: mustprogress uwtable
define linkonce_odr void @_ZNSt5dequeIN3re29WalkStateIPNS0_9Prefilter4InfoEEESaIS5_EEC2Ev(ptr noundef nonnull align 8 dereferenceable(80) %this) unnamed_addr #0 comdat align 2 {
entry:
  %this.addr = alloca ptr, align 8
  store ptr %this, ptr %this.addr, align 8
  %this1 = load ptr, ptr %this.addr, align 8
  call void @_ZNSt11_Deque_baseIN3re29WalkStateIPNS0_9Prefilter4InfoEEESaIS5_EEC2Ev(ptr noundef nonnull align 8 dereferenceable(80) %this1)
  ret void
}

; Function Attrs: mustprogress uwtable
define linkonce_odr void @_ZNSt5stackIN3re29WalkStateIPNS0_9Prefilter4InfoEEESt5dequeIS5_SaIS5_EEEC2IS8_vEEv(ptr noundef nonnull align 8 dereferenceable(80) %this) unnamed_addr #0 comdat align 2 {
entry:
  %this.addr = alloca ptr, align 8
  store ptr %this, ptr %this.addr, align 8
  %this1 = load ptr, ptr %this.addr, align 8
  %c = getelementptr inbounds %"class.std::stack", ptr %this1, i32 0, i32 0
  call void @llvm.memset.p0.i64(ptr align 8 %c, i8 0, i64 80, i1 false)
  call void @_ZNSt5dequeIN3re29WalkStateIPNS0_9Prefilter4InfoEEESaIS5_EEC2Ev(ptr noundef nonnull align 8 dereferenceable(80) %c)
  ret void
}

; Function Attrs: mustprogress uwtable
define linkonce_odr void @_ZN3re26Regexp6WalkerIPNS_9Prefilter4InfoEEC2Ev(ptr noundef nonnull align 8 dereferenceable(96) %this) unnamed_addr #0 comdat align 2 {
entry:
  %this.addr = alloca ptr, align 8
  store ptr %this, ptr %this.addr, align 8
  %this1 = load ptr, ptr %this.addr, align 8
  store ptr getelementptr inbounds ({ [8 x ptr] }, ptr @_ZTVN3re26Regexp6WalkerIPNS_9Prefilter4InfoEEE, i32 0, i32 0, i32 2), ptr %this1, align 8
  %stack_ = getelementptr inbounds %"class.re2::Regexp::Walker", ptr %this1, i32 0, i32 1
  call void @_ZNSt5stackIN3re29WalkStateIPNS0_9Prefilter4InfoEEESt5dequeIS5_SaIS5_EEEC2IS8_vEEv(ptr noundef nonnull align 8 dereferenceable(80) %stack_)
  %stopped_early_ = getelementptr inbounds %"class.re2::Regexp::Walker", ptr %this1, i32 0, i32 2
  store i8 0, ptr %stopped_early_, align 8
  ret void
}

; Function Attrs: mustprogress nounwind uwtable
define linkonce_odr noundef zeroext i1 @_ZN3re26Regexp6WalkerIPNS_9Prefilter4InfoEE13stopped_earlyEv(ptr noundef nonnull align 8 dereferenceable(96) %this) #3 comdat align 2 {
entry:
  %this.addr = alloca ptr, align 8
  store ptr %this, ptr %this.addr, align 8
  %this1 = load ptr, ptr %this.addr, align 8
  %stopped_early_ = getelementptr inbounds %"class.re2::Regexp::Walker", ptr %this1, i32 0, i32 2
  %0 = load i8, ptr %stopped_early_, align 8
  %tobool = trunc i8 %0 to i1
  ret i1 %tobool
}

; Function Attrs: mustprogress uwtable
define linkonce_odr noundef ptr @_ZN3re26Regexp6WalkerIPNS_9Prefilter4InfoEE15WalkExponentialEPS0_S4_i(ptr noundef nonnull align 8 dereferenceable(96) %this, ptr noundef %re, ptr noundef %top_arg, i32 noundef %max_visits) #0 comdat align 2 {
entry:
  %this.addr = alloca ptr, align 8
  %re.addr = alloca ptr, align 8
  %top_arg.addr = alloca ptr, align 8
  %max_visits.addr = alloca i32, align 4
  store ptr %this, ptr %this.addr, align 8
  store ptr %re, ptr %re.addr, align 8
  store ptr %top_arg, ptr %top_arg.addr, align 8
  store i32 %max_visits, ptr %max_visits.addr, align 4
  %this1 = load ptr, ptr %this.addr, align 8
  %0 = load i32, ptr %max_visits.addr, align 4
  %max_visits_ = getelementptr inbounds %"class.re2::Regexp::Walker", ptr %this1, i32 0, i32 3
  store i32 %0, ptr %max_visits_, align 4
  %1 = load ptr, ptr %re.addr, align 8
  %2 = load ptr, ptr %top_arg.addr, align 8
  %call = call noundef ptr @_ZN3re26Regexp6WalkerIPNS_9Prefilter4InfoEE12WalkInternalEPS0_S4_b(ptr noundef nonnull align 8 dereferenceable(96) %this1, ptr noundef %1, ptr noundef %2, i1 noundef zeroext false)
  ret ptr %call
}

; Function Attrs: mustprogress uwtable
define linkonce_odr void @_ZN3re29Prefilter4Info6WalkerC2Eb(ptr noundef nonnull align 8 dereferenceable(97) %this, i1 noundef zeroext %latin1) unnamed_addr #0 comdat align 2 {
entry:
  %this.addr = alloca ptr, align 8
  %latin1.addr = alloca i8, align 1
  store ptr %this, ptr %this.addr, align 8
  %frombool = zext i1 %latin1 to i8
  store i8 %frombool, ptr %latin1.addr, align 1
  %this1 = load ptr, ptr %this.addr, align 8
  call void @_ZN3re26Regexp6WalkerIPNS_9Prefilter4InfoEEC2Ev(ptr noundef nonnull align 8 dereferenceable(96) %this1)
  store ptr getelementptr inbounds ({ [8 x ptr] }, ptr @_ZTVN3re29Prefilter4Info6WalkerE, i32 0, i32 0, i32 2), ptr %this1, align 8
  %latin1_ = getelementptr inbounds %"class.re2::Prefilter::Info::Walker", ptr %this1, i32 0, i32 1
  %0 = load i8, ptr %latin1.addr, align 1
  %tobool = trunc i8 %0 to i1
  %frombool2 = zext i1 %tobool to i8
  store i8 %frombool2, ptr %latin1_, align 8
  ret void
}

; Function Attrs: mustprogress nounwind uwtable
define linkonce_odr noundef i32 @_ZN3re2anENS_6Regexp10ParseFlagsES1_(i32 noundef %a, i32 noundef %b) #3 comdat {
entry:
  %a.addr = alloca i32, align 4
  %b.addr = alloca i32, align 4
  store i32 %a, ptr %a.addr, align 4
  store i32 %b, ptr %b.addr, align 4
  %0 = load i32, ptr %a.addr, align 4
  %1 = load i32, ptr %b.addr, align 4
  %and = and i32 %0, %1
  ret i32 %and
}

; Function Attrs: mustprogress nounwind uwtable
define linkonce_odr noundef i32 @_ZN3re26Regexp11parse_flagsEv(ptr noundef nonnull align 8 dereferenceable(40) %this) #3 comdat align 2 {
entry:
  %this.addr = alloca ptr, align 8
  store ptr %this, ptr %this.addr, align 8
  %this1 = load ptr, ptr %this.addr, align 8
  %parse_flags_ = getelementptr inbounds %"class.re2::Regexp", ptr %this1, i32 0, i32 2
  %0 = load i16, ptr %parse_flags_, align 2
  %conv = zext i16 %0 to i32
  ret i32 %conv
}

; Function Attrs: mustprogress uwtable
define noundef ptr @_ZN3re29Prefilter9BuildInfoEPNS_6RegexpE(ptr noundef %re) #0 align 2 personality ptr @__gxx_personality_v0 {
entry:
  %retval = alloca ptr, align 8
  %re.addr = alloca ptr, align 8
  %latin1 = alloca i8, align 1
  %w = alloca %"class.re2::Prefilter::Info::Walker", align 8
  %info = alloca ptr, align 8
  %exn.slot = alloca ptr, align 8
  %ehselector.slot = alloca i32, align 4
  %cleanup.dest.slot = alloca i32, align 4
  store ptr %re, ptr %re.addr, align 8
  %0 = load ptr, ptr %re.addr, align 8
  %call = call noundef i32 @_ZN3re26Regexp11parse_flagsEv(ptr noundef nonnull align 8 dereferenceable(40) %0)
  %call1 = call noundef i32 @_ZN3re2anENS_6Regexp10ParseFlagsES1_(i32 noundef %call, i32 noundef 32)
  %cmp = icmp ne i32 %call1, 0
  %frombool = zext i1 %cmp to i8
  store i8 %frombool, ptr %latin1, align 1
  %1 = load i8, ptr %latin1, align 1
  %tobool = trunc i8 %1 to i1
  call void @_ZN3re29Prefilter4Info6WalkerC2Eb(ptr noundef nonnull align 8 dereferenceable(97) %w, i1 noundef zeroext %tobool)
  %2 = load ptr, ptr %re.addr, align 8
  %call2 = invoke noundef ptr @_ZN3re26Regexp6WalkerIPNS_9Prefilter4InfoEE15WalkExponentialEPS0_S4_i(ptr noundef nonnull align 8 dereferenceable(96) %w, ptr noundef %2, ptr noundef null, i32 noundef 100000)
          to label %invoke.cont unwind label %lpad

invoke.cont:                                      ; preds = %entry
  store ptr %call2, ptr %info, align 8
  %call4 = invoke noundef zeroext i1 @_ZN3re26Regexp6WalkerIPNS_9Prefilter4InfoEE13stopped_earlyEv(ptr noundef nonnull align 8 dereferenceable(96) %w)
          to label %invoke.cont3 unwind label %lpad

invoke.cont3:                                     ; preds = %invoke.cont
  br i1 %call4, label %if.then, label %if.end

if.then:                                          ; preds = %invoke.cont3
  %3 = load ptr, ptr %info, align 8
  %isnull = icmp eq ptr %3, null
  br i1 %isnull, label %delete.end, label %delete.notnull

delete.notnull:                                   ; preds = %if.then
  call void @_ZN3re29Prefilter4InfoD1Ev(ptr noundef nonnull align 8 dereferenceable(64) %3) #13
  call void @_ZdlPv(ptr noundef %3) #15
  br label %delete.end

delete.end:                                       ; preds = %delete.notnull, %if.then
  store ptr null, ptr %retval, align 8
  store i32 1, ptr %cleanup.dest.slot, align 4
  br label %cleanup

lpad:                                             ; preds = %invoke.cont, %entry
  %4 = landingpad { ptr, i32 }
          cleanup
  %5 = extractvalue { ptr, i32 } %4, 0
  store ptr %5, ptr %exn.slot, align 8
  %6 = extractvalue { ptr, i32 } %4, 1
  store i32 %6, ptr %ehselector.slot, align 4
  call void @_ZN3re29Prefilter4Info6WalkerD2Ev(ptr noundef nonnull align 8 dereferenceable(97) %w) #13
  br label %eh.resume

if.end:                                           ; preds = %invoke.cont3
  %7 = load ptr, ptr %info, align 8
  store ptr %7, ptr %retval, align 8
  store i32 1, ptr %cleanup.dest.slot, align 4
  br label %cleanup

cleanup:                                          ; preds = %if.end, %delete.end
  call void @_ZN3re29Prefilter4Info6WalkerD2Ev(ptr noundef nonnull align 8 dereferenceable(97) %w) #13
  %8 = load ptr, ptr %retval, align 8
  ret ptr %8

eh.resume:                                        ; preds = %lpad
  %exn = load ptr, ptr %exn.slot, align 8
  %sel = load i32, ptr %ehselector.slot, align 4
  %lpad.val = insertvalue { ptr, i32 } poison, ptr %exn, 0
  %lpad.val5 = insertvalue { ptr, i32 } %lpad.val, i32 %sel, 1
  resume { ptr, i32 } %lpad.val5
}