; Function Attrs: mustprogress uwtable
define noundef ptr @_ZN3re29Prefilter9BuildInfoEPNS_6RegexpE(ptr noundef %re) local_unnamed_addr #0 align 2 personality ptr @__gxx_personality_v0 {
entry:
  %w = alloca %"class.re2::Prefilter::Info::Walker", align 8
  %parse_flags_.i = getelementptr inbounds i8, ptr %re, i64 2
  %0 = load i16, ptr %parse_flags_.i, align 2
  %1 = trunc i16 %0 to i8
  %2 = lshr i8 %1, 5
  %frombool.i = and i8 %2, 1
  store ptr getelementptr inbounds ({ [8 x ptr] }, ptr @_ZTVN3re26Regexp6WalkerIPNS_9Prefilter4InfoEEE, i64 0, i32 0, i64 2), ptr %w, align 8
  %stack_.i.i = getelementptr inbounds i8, ptr %w, i64 8
  call void @llvm.memset.p0.i64(ptr noundef nonnull align 8 dereferenceable(80) %stack_.i.i, i8 0, i64 80, i1 false)
  call void @_ZNSt11_Deque_baseIN3re29WalkStateIPNS0_9Prefilter4InfoEEESaIS5_EE17_M_initialize_mapEm(ptr noundef nonnull align 8 dereferenceable(80) %stack_.i.i, i64 noundef 0)
  %stopped_early_.i.i = getelementptr inbounds i8, ptr %w, i64 88
  store i8 0, ptr %stopped_early_.i.i, align 8
  store ptr getelementptr inbounds ({ [8 x ptr] }, ptr @_ZTVN3re29Prefilter4Info6WalkerE, i64 0, i32 0, i64 2), ptr %w, align 8
  %latin1_.i = getelementptr inbounds i8, ptr %w, i64 96
  store i8 %frombool.i, ptr %latin1_.i, align 8
  %max_visits_.i = getelementptr inbounds i8, ptr %w, i64 92
  store i32 100000, ptr %max_visits_.i, align 4
  %call.i3 = invoke noundef ptr @_ZN3re26Regexp6WalkerIPNS_9Prefilter4InfoEE12WalkInternalEPS0_S4_b(ptr noundef nonnull align 8 dereferenceable(96) %w, ptr noundef nonnull %re, ptr noundef null, i1 noundef zeroext false)
          to label %invoke.cont unwind label %lpad

invoke.cont:                                      ; preds = %entry
  %3 = load i8, ptr %stopped_early_.i.i, align 8
  %4 = and i8 %3, 1
  %tobool.i.not = icmp eq i8 %4, 0
  br i1 %tobool.i.not, label %cleanup, label %if.then

if.then:                                          ; preds = %invoke.cont
  %isnull = icmp eq ptr %call.i3, null
  br i1 %isnull, label %cleanup, label %delete.notnull

delete.notnull:                                   ; preds = %if.then
  call void @_ZN3re29Prefilter4InfoD1Ev(ptr noundef nonnull align 8 dereferenceable(64) %call.i3) #16
  call void @_ZdlPv(ptr noundef nonnull %call.i3) #18
  br label %cleanup

lpad:                                             ; preds = %entry
  %5 = landingpad { ptr, i32 }
          cleanup
  call void @_ZN3re29Prefilter4Info6WalkerD2Ev(ptr noundef nonnull align 8 dereferenceable(97) %w) #16
  resume { ptr, i32 } %5

cleanup:                                          ; preds = %invoke.cont, %if.then, %delete.notnull
  %retval.0 = phi ptr [ null, %delete.notnull ], [ null, %if.then ], [ %call.i3, %invoke.cont ]
  store ptr getelementptr inbounds ({ [8 x ptr] }, ptr @_ZTVN3re26Regexp6WalkerIPNS_9Prefilter4InfoEEE, i64 0, i32 0, i64 2), ptr %w, align 8
  invoke void @_ZN3re26Regexp6WalkerIPNS_9Prefilter4InfoEE5ResetEv(ptr noundef nonnull align 8 dereferenceable(96) %w)
          to label %invoke.cont.i.i unwind label %terminate.lpad.i.i

invoke.cont.i.i:                                  ; preds = %cleanup
  %6 = load ptr, ptr %stack_.i.i, align 8
  %tobool.not.i.i.i.i.i = icmp eq ptr %6, null
  br i1 %tobool.not.i.i.i.i.i, label %_ZN3re29Prefilter4Info6WalkerD2Ev.exit, label %if.then.i.i.i.i.i

if.then.i.i.i.i.i:                                ; preds = %invoke.cont.i.i
  %_M_node5.i.i6.i.i.i.i = getelementptr inbounds i8, ptr %w, i64 80
  %_M_node5.i.i.i.i.i.i = getelementptr inbounds i8, ptr %w, i64 48
  %7 = load ptr, ptr %_M_node5.i.i.i.i.i.i, align 8
  %8 = load ptr, ptr %_M_node5.i.i6.i.i.i.i, align 8
  %add.ptr.i.i.i.i.i = getelementptr inbounds i8, ptr %8, i64 8
  %cmp3.i.i.i.i.i.i = icmp ult ptr %7, %add.ptr.i.i.i.i.i
  br i1 %cmp3.i.i.i.i.i.i, label %for.body.i.i.i.i.i.i, label %_ZNSt11_Deque_baseIN3re29WalkStateIPNS0_9Prefilter4InfoEEESaIS5_EE16_M_destroy_nodesEPPS5_S9_.exit.i.i.i.i.i

for.body.i.i.i.i.i.i:                             ; preds = %if.then.i.i.i.i.i, %for.body.i.i.i.i.i.i
  %__n.04.i.i.i.i.i.i = phi ptr [ %incdec.ptr.i.i.i.i.i.i, %for.body.i.i.i.i.i.i ], [ %7, %if.then.i.i.i.i.i ]
  %9 = load ptr, ptr %__n.04.i.i.i.i.i.i, align 8
  call void @_ZdlPv(ptr noundef %9) #18
  %incdec.ptr.i.i.i.i.i.i = getelementptr inbounds i8, ptr %__n.04.i.i.i.i.i.i, i64 8
  %cmp.i.i.i.i.i.i = icmp ult ptr %__n.04.i.i.i.i.i.i, %8
  br i1 %cmp.i.i.i.i.i.i, label %for.body.i.i.i.i.i.i, label %_ZNSt11_Deque_baseIN3re29WalkStateIPNS0_9Prefilter4InfoEEESaIS5_EE16_M_destroy_nodesEPPS5_S9_.exit.loopexit.i.i.i.i.i, !llvm.loop !34

_ZNSt11_Deque_baseIN3re29WalkStateIPNS0_9Prefilter4InfoEEESaIS5_EE16_M_destroy_nodesEPPS5_S9_.exit.loopexit.i.i.i.i.i: ; preds = %for.body.i.i.i.i.i.i
  %.pre.i.i.i.i.i = load ptr, ptr %stack_.i.i, align 8
  br label %_ZNSt11_Deque_baseIN3re29WalkStateIPNS0_9Prefilter4InfoEEESaIS5_EE16_M_destroy_nodesEPPS5_S9_.exit.i.i.i.i.i

_ZNSt11_Deque_baseIN3re29WalkStateIPNS0_9Prefilter4InfoEEESaIS5_EE16_M_destroy_nodesEPPS5_S9_.exit.i.i.i.i.i: ; preds = %_ZNSt11_Deque_baseIN3re29WalkStateIPNS0_9Prefilter4InfoEEESaIS5_EE16_M_destroy_nodesEPPS5_S9_.exit.loopexit.i.i.i.i.i, %if.then.i.i.i.i.i
  %10 = phi ptr [ %.pre.i.i.i.i.i, %_ZNSt11_Deque_baseIN3re29WalkStateIPNS0_9Prefilter4InfoEEESaIS5_EE16_M_destroy_nodesEPPS5_S9_.exit.loopexit.i.i.i.i.i ], [ %6, %if.then.i.i.i.i.i ]
  call void @_ZdlPv(ptr noundef %10) #18
  br label %_ZN3re29Prefilter4Info6WalkerD2Ev.exit

terminate.lpad.i.i:                               ; preds = %cleanup
  %11 = landingpad { ptr, i32 }
          catch ptr null
  %12 = extractvalue { ptr, i32 } %11, 0
  call void @__clang_call_terminate(ptr %12) #21
  unreachable

_ZN3re29Prefilter4Info6WalkerD2Ev.exit:           ; preds = %invoke.cont.i.i, %_ZNSt11_Deque_baseIN3re29WalkStateIPNS0_9Prefilter4InfoEEESaIS5_EE16_M_destroy_nodesEPPS5_S9_.exit.i.i.i.i.i
  ret ptr %retval.0
}